; ModuleID = '27/472.c'
source_filename = "27/472.c"
target datalayout = "e-m:e-p270:32:32-p271:32:32-p272:64:64-i64:64-f80:128-n8:16:32:64-S128"
target triple = "x86_64-pc-linux-gnu"

@.str = private unnamed_addr constant [3 x i8] c"%d\00", align 1
@.str.1 = private unnamed_addr constant [7 x i8] c"%f%f%f\00", align 1
@.str.2 = private unnamed_addr constant [12 x i8] c"x1=x2=%.5f\0A\00", align 1
@.str.3 = private unnamed_addr constant [17 x i8] c"x1=%.5f;x2=%.5f\0A\00", align 1
@.str.4 = private unnamed_addr constant [29 x i8] c"x1=%.5f+%.5fi;x2=%.5f-%.5fi\0A\00", align 1

; Function Attrs: noinline nounwind uwtable
define dso_local i32 @main() #0 {
  %1 = alloca i32, align 4
  %2 = alloca float, align 4
  %3 = alloca float, align 4
  %4 = alloca float, align 4
  %5 = alloca float, align 4
  %6 = alloca double, align 8
  %7 = alloca double, align 8
  %8 = alloca double, align 8
  %9 = alloca double, align 8
  %10 = alloca i32, align 4
  %11 = alloca i32, align 4
  store i32 0, i32* %1, align 4
  %12 = call i32 (i8*, ...) @__isoc99_scanf(i8* getelementptr inbounds ([3 x i8], [3 x i8]* @.str, i64 0, i64 0), i32* %11)
  store i32 1, i32* %10, align 4
  br label %13

13:                                               ; preds = %101, %0
  %14 = load i32, i32* %10, align 4
  %15 = load i32, i32* %11, align 4
  %16 = icmp sle i32 %14, %15
  br i1 %16, label %17, label %104

17:                                               ; preds = %13
  %18 = call i32 (i8*, ...) @__isoc99_scanf(i8* getelementptr inbounds ([7 x i8], [7 x i8]* @.str.1, i64 0, i64 0), float* %2, float* %3, float* %4)
  %19 = load float, float* %3, align 4
  %20 = load float, float* %3, align 4
  %21 = fmul float %19, %20
  %22 = load float, float* %2, align 4
  %23 = fmul float 4.000000e+00, %22
  %24 = load float, float* %4, align 4
  %25 = fmul float %23, %24
  %26 = fsub float %21, %25
  store float %26, float* %5, align 4
  %27 = load float, float* %5, align 4
  %28 = fpext float %27 to double
  %29 = call double @llvm.fabs.f64(double %28)
  %30 = fcmp ole double %29, 0x3EB0C6F7A0B5ED8D
  br i1 %30, label %31, label %40

31:                                               ; preds = %17
  %32 = load float, float* %3, align 4
  %33 = fneg float %32
  %34 = load float, float* %2, align 4
  %35 = fmul float 2.000000e+00, %34
  %36 = fdiv float %33, %35
  %37 = fadd float %36, 0.000000e+00
  %38 = fpext float %37 to double
  %39 = call i32 (i8*, ...) @printf(i8* getelementptr inbounds ([12 x i8], [12 x i8]* @.str.2, i64 0, i64 0), double %38)
  br label %100

40:                                               ; preds = %17
  %41 = load float, float* %5, align 4
  %42 = fpext float %41 to double
  %43 = fcmp ogt double %42, 0x3EB0C6F7A0B5ED8D
  br i1 %43, label %44, label %78

44:                                               ; preds = %40
  %45 = load float, float* %3, align 4
  %46 = fneg float %45
  %47 = load float, float* %2, align 4
  %48 = fmul float 2.000000e+00, %47
  %49 = fdiv float %46, %48
  %50 = fadd float %49, 0.000000e+00
  %51 = fpext float %50 to double
  store double %51, double* %8, align 8
  %52 = load float, float* %5, align 4
  %53 = fpext float %52 to double
  %54 = call double @sqrt(double %53) #4
  %55 = load float, float* %2, align 4
  %56 = fmul float 2.000000e+00, %55
  %57 = fpext float %56 to double
  %58 = fdiv double %54, %57
  store double %58, double* %9, align 8
  %59 = load double, double* %8, align 8
  %60 = load double, double* %9, align 8
  %61 = fadd double %59, %60
  store double %61, double* %6, align 8
  %62 = load double, double* %8, align 8
  %63 = load double, double* %9, align 8
  %64 = fsub double %62, %63
  store double %64, double* %7, align 8
  %65 = load double, double* %6, align 8
  %66 = call double @llvm.fabs.f64(double %65)
  %67 = fcmp ole double %66, 0x3EB0C6F7A0B5ED8D
  br i1 %67, label %68, label %73

68:                                               ; preds = %44
  %69 = load double, double* %6, align 8
  %70 = call double @llvm.fabs.f64(double %69)
  %71 = load double, double* %7, align 8
  %72 = call i32 (i8*, ...) @printf(i8* getelementptr inbounds ([17 x i8], [17 x i8]* @.str.3, i64 0, i64 0), double %70, double %71)
  br label %77

73:                                               ; preds = %44
  %74 = load double, double* %6, align 8
  %75 = load double, double* %7, align 8
  %76 = call i32 (i8*, ...) @printf(i8* getelementptr inbounds ([17 x i8], [17 x i8]* @.str.3, i64 0, i64 0), double %74, double %75)
  br label %77

77:                                               ; preds = %73, %68
  br label %99

78:                                               ; preds = %40
  %79 = load float, float* %3, align 4
  %80 = fneg float %79
  %81 = load float, float* %2, align 4
  %82 = fmul float 2.000000e+00, %81
  %83 = fdiv float %80, %82
  %84 = fadd float %83, 0.000000e+00
  %85 = fpext float %84 to double
  store double %85, double* %8, align 8
  %86 = load float, float* %5, align 4
  %87 = fneg float %86
  %88 = fpext float %87 to double
  %89 = call double @sqrt(double %88) #4
  %90 = load float, float* %2, align 4
  %91 = fmul float 2.000000e+00, %90
  %92 = fpext float %91 to double
  %93 = fdiv double %89, %92
  store double %93, double* %9, align 8
  %94 = load double, double* %8, align 8
  %95 = load double, double* %9, align 8
  %96 = load double, double* %8, align 8
  %97 = load double, double* %9, align 8
  %98 = call i32 (i8*, ...) @printf(i8* getelementptr inbounds ([29 x i8], [29 x i8]* @.str.4, i64 0, i64 0), double %94, double %95, double %96, double %97)
  br label %99

99:                                               ; preds = %78, %77
  br label %100

100:                                              ; preds = %99, %31
  br label %101

101:                                              ; preds = %100
  %102 = load i32, i32* %10, align 4
  %103 = add nsw i32 %102, 1
  store i32 %103, i32* %10, align 4
  br label %13

104:                                              ; preds = %13
  %105 = load i32, i32* %1, align 4
  ret i32 %105
}

declare dso_local i32 @__isoc99_scanf(i8*, ...) #1

; Function Attrs: nounwind readnone speculatable willreturn
declare double @llvm.fabs.f64(double) #2

declare dso_local i32 @printf(i8*, ...) #1

; Function Attrs: nounwind
declare dso_local double @sqrt(double) #3


!llvm.module.flags = !{!0}
!llvm.ident = !{!1}

!0 = !{i32 1, !"wchar_size", i32 4}
!1 = !{!"clang version 10.0.0-4ubuntu1 "}
