; ModuleID = 'source-C-CXX/26/472.c'
source_filename = "source-C-CXX/26/472.c"
target datalayout = "e-m:e-p270:32:32-p271:32:32-p272:64:64-i64:64-f80:128-n8:16:32:64-S128"
target triple = "x86_64-pc-linux-gnu"

@.str = private unnamed_addr constant [3 x i8] c"%d\00", align 1
@.str.1 = private unnamed_addr constant [7 x i8] c"%f%f%f\00", align 1
@.str.2 = private unnamed_addr constant [12 x i8] c"x1=x2=%.5f\0A\00", align 1
@.str.3 = private unnamed_addr constant [17 x i8] c"x1=%.5f;x2=%.5f\0A\00", align 1
@.str.4 = private unnamed_addr constant [29 x i8] c"x1=%.5f+%.5fi;x2=%.5f-%.5fi\0A\00", align 1

; Function Attrs: nofree nounwind sspstrong uwtable
define dso_local i32 @main() local_unnamed_addr #0 {
  %1 = alloca float, align 4
  %2 = alloca float, align 4
  %3 = alloca float, align 4
  %4 = alloca i32, align 4
  %5 = bitcast float* %1 to i8*
  call void @llvm.lifetime.start.p0i8(i64 4, i8* nonnull %5) #5
  %6 = bitcast float* %2 to i8*
  call void @llvm.lifetime.start.p0i8(i64 4, i8* nonnull %6) #5
  %7 = bitcast float* %3 to i8*
  call void @llvm.lifetime.start.p0i8(i64 4, i8* nonnull %7) #5
  %8 = bitcast i32* %4 to i8*
  call void @llvm.lifetime.start.p0i8(i64 4, i8* nonnull %8) #5
  %9 = call i32 (i8*, ...) @__isoc99_scanf(i8* getelementptr inbounds ([3 x i8], [3 x i8]* @.str, i64 0, i64 0), i32* nonnull %4)
  %10 = load i32, i32* %4, align 4, !tbaa !5
  %11 = icmp slt i32 %10, 1
  br i1 %11, label %64, label %12

12:                                               ; preds = %0, %60
  %13 = phi i32 [ %61, %60 ], [ 1, %0 ]
  %14 = call i32 (i8*, ...) @__isoc99_scanf(i8* getelementptr inbounds ([7 x i8], [7 x i8]* @.str.1, i64 0, i64 0), float* nonnull %1, float* nonnull %2, float* nonnull %3)
  %15 = load float, float* %2, align 4, !tbaa !9
  %16 = fmul float %15, %15
  %17 = load float, float* %1, align 4, !tbaa !9
  %18 = fmul float %17, 4.000000e+00
  %19 = load float, float* %3, align 4, !tbaa !9
  %20 = fmul float %18, %19
  %21 = fsub float %16, %20
  %22 = fpext float %21 to double
  %23 = call double @llvm.fabs.f64(double %22)
  %24 = fcmp ugt double %23, 0x3EB0C6F7A0B5ED8D
  br i1 %24, label %31, label %25

25:                                               ; preds = %12
  %26 = fmul float %17, 2.000000e+00
  %27 = fdiv float %15, %26
  %28 = fsub float 0.000000e+00, %27
  %29 = fpext float %28 to double
  %30 = call i32 (i8*, ...) @printf(i8* nonnull dereferenceable(1) getelementptr inbounds ([12 x i8], [12 x i8]* @.str.2, i64 0, i64 0), double %29)
  br label %60

31:                                               ; preds = %12
  %32 = fcmp ogt double %22, 0x3EB0C6F7A0B5ED8D
  %33 = fmul float %17, 2.000000e+00
  %34 = fdiv float %15, %33
  %35 = fsub float 0.000000e+00, %34
  %36 = fpext float %35 to double
  br i1 %32, label %37, label %51

37:                                               ; preds = %31
  %38 = call double @sqrt(double %22) #5
  %39 = load float, float* %1, align 4, !tbaa !9
  %40 = fmul float %39, 2.000000e+00
  %41 = fpext float %40 to double
  %42 = fdiv double %38, %41
  %43 = fadd double %42, %36
  %44 = fsub double %36, %42
  %45 = call double @llvm.fabs.f64(double %43)
  %46 = fcmp ugt double %45, 0x3EB0C6F7A0B5ED8D
  br i1 %46, label %49, label %47

47:                                               ; preds = %37
  %48 = call i32 (i8*, ...) @printf(i8* nonnull dereferenceable(1) getelementptr inbounds ([17 x i8], [17 x i8]* @.str.3, i64 0, i64 0), double %45, double %44)
  br label %60

49:                                               ; preds = %37
  %50 = call i32 (i8*, ...) @printf(i8* nonnull dereferenceable(1) getelementptr inbounds ([17 x i8], [17 x i8]* @.str.3, i64 0, i64 0), double %43, double %44)
  br label %60

51:                                               ; preds = %31
  %52 = fneg float %21
  %53 = fpext float %52 to double
  %54 = call double @sqrt(double %53) #5
  %55 = load float, float* %1, align 4, !tbaa !9
  %56 = fmul float %55, 2.000000e+00
  %57 = fpext float %56 to double
  %58 = fdiv double %54, %57
  %59 = call i32 (i8*, ...) @printf(i8* nonnull dereferenceable(1) getelementptr inbounds ([29 x i8], [29 x i8]* @.str.4, i64 0, i64 0), double %36, double %58, double %36, double %58)
  br label %60

60:                                               ; preds = %25, %47, %49, %51
  %61 = add nuw nsw i32 %13, 1
  %62 = load i32, i32* %4, align 4, !tbaa !5
  %63 = icmp slt i32 %13, %62
  br i1 %63, label %12, label %64, !llvm.loop !11

64:                                               ; preds = %60, %0
  call void @llvm.lifetime.end.p0i8(i64 4, i8* nonnull %8) #5
  call void @llvm.lifetime.end.p0i8(i64 4, i8* nonnull %7) #5
  call void @llvm.lifetime.end.p0i8(i64 4, i8* nonnull %6) #5
  call void @llvm.lifetime.end.p0i8(i64 4, i8* nonnull %5) #5
  ret i32 0
}

; Function Attrs: argmemonly mustprogress nofree nosync nounwind willreturn
declare void @llvm.lifetime.start.p0i8(i64 immarg, i8* nocapture) #1

; Function Attrs: nofree nounwind
declare noundef i32 @__isoc99_scanf(i8* nocapture noundef readonly, ...) local_unnamed_addr #2

; Function Attrs: mustprogress nofree nosync nounwind readnone speculatable willreturn
declare double @llvm.fabs.f64(double) #3

; Function Attrs: nofree nounwind
declare noundef i32 @printf(i8* nocapture noundef readonly, ...) local_unnamed_addr #2

; Function Attrs: mustprogress nofree nounwind willreturn
declare double @sqrt(double) local_unnamed_addr #4

; Function Attrs: argmemonly mustprogress nofree nosync nounwind willreturn
declare void @llvm.lifetime.end.p0i8(i64 immarg, i8* nocapture) #1


!llvm.module.flags = !{!0, !1, !2, !3}
!llvm.ident = !{!4}

!0 = !{i32 1, !"wchar_size", i32 4}
!1 = !{i32 7, !"PIC Level", i32 2}
!2 = !{i32 7, !"PIE Level", i32 2}
!3 = !{i32 7, !"uwtable", i32 1}
!4 = !{!"clang version 13.0.0"}
!5 = !{!6, !6, i64 0}
!6 = !{!"int", !7, i64 0}
!7 = !{!"omnipotent char", !8, i64 0}
!8 = !{!"Simple C/C++ TBAA"}
!9 = !{!10, !10, i64 0}
!10 = !{!"float", !7, i64 0}
!11 = distinct !{!11, !12}
!12 = !{!"llvm.loop.mustprogress"}
